; Function Attrs: mustprogress uwtable
define void @_ZN5arrow2io16LatencyGenerator5SleepEv(ptr noundef nonnull align 8 dereferenceable(8) %0) local_unnamed_addr #2 align 2 personality ptr @__gxx_personality_v0 {
  %2 = alloca %struct.timespec, align 8
  %3 = load ptr, ptr %0, align 8, !tbaa !3
  %4 = getelementptr inbounds nuw i8, ptr %3, i64 16
  %5 = load ptr, ptr %4, align 8
  %6 = tail call noundef double %5(ptr noundef nonnull align 8 dereferenceable(8) %0)
  %7 = fcmp ule double %6, 0.000000e+00
  br i1 %7, label %_ZNSt11this_thread9sleep_forIdSt5ratioILl1ELl1EEEEvRKNSt6chrono8durationIT_T0_EE.exit, label %8

8:                                                ; preds = %1
  %9 = fptosi double %6 to i64
  %10 = sitofp i64 %9 to double
  %11 = fsub double %6, %10
  %12 = fmul double %11, 1.000000e+09
  %13 = fptosi double %12 to i64
  call void @llvm.lifetime.start.p0(i64 16, ptr nonnull %2) #25
  store i64 %9, ptr %2, align 8, !tbaa !6
  %14 = getelementptr inbounds nuw i8, ptr %2, i64 8
  store i64 %13, ptr %14, align 8, !tbaa !10
  br label %15

15:                                               ; preds = %18, %8
  %16 = call i32 @nanosleep(ptr noundef nonnull %2, ptr noundef nonnull %2)
  %17 = icmp eq i32 %16, -1
  br i1 %17, label %18, label %.critedge.i

18:                                               ; preds = %15
  %19 = tail call ptr @__errno_location() #26
  %20 = load i32, ptr %19, align 4, !tbaa !11
  %21 = icmp eq i32 %20, 4
  br i1 %21, label %15, label %.critedge.i, !llvm.loop !13

.critedge.i:                                      ; preds = %18, %15
  call void @llvm.lifetime.end.p0(i64 16, ptr nonnull %2) #25
  br label %_ZNSt11this_thread9sleep_forIdSt5ratioILl1ELl1EEEEvRKNSt6chrono8durationIT_T0_EE.exit

_ZNSt11this_thread9sleep_forIdSt5ratioILl1ELl1EEEEvRKNSt6chrono8durationIT_T0_EE.exit: ; preds = %1, %.critedge.i
  ret void
}